; Function Attrs: mustprogress nounwind uwtable
define hidden void @_ZN12HotSpotJVMCI25HotSpotObjectConstantImpl10initializeEP8JVMCIEnv(ptr nocapture noundef readnone %0) local_unnamed_addr #0 align 2 {
  %2 = tail call align 8 ptr @llvm.threadlocal.address.p0(ptr align 8 @_ZN6Thread12_thr_currentE)
  %3 = load ptr, ptr %2, align 8
  %4 = load ptr, ptr @_ZN12HotSpotJVMCI25HotSpotObjectConstantImpl6_klassE, align 8
  %5 = load ptr, ptr %4, align 8
  %6 = getelementptr inbounds i8, ptr %5, i64 176
  %7 = load ptr, ptr %6, align 8
  tail call void %7(ptr noundef nonnull align 8 dereferenceable(464) %4, ptr noundef %3) #13
  ret void
}